target datalayout = "e-m:e-p270:32:32-p271:32:32-p272:64:64-i64:64-i128:128-f80:128-n8:16:32:64-S128"
target triple = "x86_64-pc-linux-gnu"

%struct.ExprEvalStep = type { i64, ptr, ptr, %union.anon }
%union.anon = type { %struct.anon.23 }
%struct.anon.23 = type { ptr, ptr, i32, i32, ptr, ptr }
%struct.TupleTableSlot = type { i32, i16, i16, ptr, ptr, ptr, ptr, ptr, %struct.ItemPointerData, i32 }
%struct.ItemPointerData = type { %struct.BlockIdData, i16 }
%struct.BlockIdData = type { i16, i16 }
%struct.FmgrInfo = type { ptr, i32, i16, i8, i8, i8, ptr, ptr, ptr }
%struct.anon.44 = type { ptr, ptr, i32, i32, i32 }
%struct.TupleTableSlotOps = type { i64, ptr, ptr, ptr, ptr, ptr, ptr, ptr, ptr, ptr, ptr, ptr, ptr }
%struct.AggStatePerTransData = type { ptr, i8, i8, i32, i32, i32, i32, i32, i32, %struct.FmgrInfo, %struct.FmgrInfo, %struct.FmgrInfo, i32, i32, i32, ptr, ptr, ptr, ptr, %struct.FmgrInfo, ptr, i64, i8, i16, i16, i8, i8, ptr, ptr, ptr, i64, i8, i8, ptr, ptr, ptr, ptr }

; Function Attrs: inlinehint nounwind uwtable
define internal ptr @ExecClearTuple(ptr noundef %0) #2 {
  %2 = alloca ptr, align 8
  store ptr %0, ptr %2, align 8
  %3 = load ptr, ptr %2, align 8
  %4 = getelementptr inbounds nuw %struct.TupleTableSlot, ptr %3, i32 0, i32 3
  %5 = load ptr, ptr %4, align 8
  %6 = getelementptr inbounds nuw %struct.TupleTableSlotOps, ptr %5, i32 0, i32 3
  %7 = load ptr, ptr %6, align 8
  %8 = load ptr, ptr %2, align 8
  call void %7(ptr noundef %8)
  %9 = load ptr, ptr %2, align 8
  ret ptr %9
}

; Function Attrs: nounwind uwtable
define dso_local void @ExecEvalAggOrderedTransTuple(ptr noundef %0, ptr noundef %1, ptr noundef %2) #0 {
  %4 = alloca ptr, align 8
  %5 = alloca ptr, align 8
  %6 = alloca ptr, align 8
  %7 = alloca ptr, align 8
  %8 = alloca i32, align 4
  store ptr %0, ptr %4, align 8
  store ptr %1, ptr %5, align 8
  store ptr %2, ptr %6, align 8
  call void @llvm.lifetime.start.p0(i64 8, ptr %7) #11
  %9 = load ptr, ptr %5, align 8
  %10 = getelementptr inbounds nuw %struct.ExprEvalStep, ptr %9, i32 0, i32 3
  %11 = getelementptr inbounds nuw %struct.anon.44, ptr %10, i32 0, i32 0
  %12 = load ptr, ptr %11, align 8
  store ptr %12, ptr %7, align 8
  call void @llvm.lifetime.start.p0(i64 4, ptr %8) #11
  %13 = load ptr, ptr %5, align 8
  %14 = getelementptr inbounds nuw %struct.ExprEvalStep, ptr %13, i32 0, i32 3
  %15 = getelementptr inbounds nuw %struct.anon.44, ptr %14, i32 0, i32 2
  %16 = load i32, ptr %15, align 8
  store i32 %16, ptr %8, align 4
  %17 = load ptr, ptr %7, align 8
  %18 = getelementptr inbounds nuw %struct.AggStatePerTransData, ptr %17, i32 0, i32 27
  %19 = load ptr, ptr %18, align 8
  %20 = call ptr @ExecClearTuple(ptr noundef %19)
  %21 = load ptr, ptr %7, align 8
  %22 = getelementptr inbounds nuw %struct.AggStatePerTransData, ptr %21, i32 0, i32 3
  %23 = load i32, ptr %22, align 4
  %24 = trunc i32 %23 to i16
  %25 = load ptr, ptr %7, align 8
  %26 = getelementptr inbounds nuw %struct.AggStatePerTransData, ptr %25, i32 0, i32 27
  %27 = load ptr, ptr %26, align 8
  %28 = getelementptr inbounds nuw %struct.TupleTableSlot, ptr %27, i32 0, i32 2
  store i16 %24, ptr %28, align 2
  %29 = load ptr, ptr %7, align 8
  %30 = getelementptr inbounds nuw %struct.AggStatePerTransData, ptr %29, i32 0, i32 27
  %31 = load ptr, ptr %30, align 8
  %32 = call ptr @ExecStoreVirtualTuple(ptr noundef %31)
  %33 = load ptr, ptr %7, align 8
  %34 = getelementptr inbounds nuw %struct.AggStatePerTransData, ptr %33, i32 0, i32 33
  %35 = load ptr, ptr %34, align 8
  %36 = load i32, ptr %8, align 4
  %37 = sext i32 %36 to i64
  %38 = getelementptr inbounds ptr, ptr %35, i64 %37
  %39 = load ptr, ptr %38, align 8
  %40 = load ptr, ptr %7, align 8
  %41 = getelementptr inbounds nuw %struct.AggStatePerTransData, ptr %40, i32 0, i32 27
  %42 = load ptr, ptr %41, align 8
  call void @tuplesort_puttupleslot(ptr noundef %39, ptr noundef %42)
  call void @llvm.lifetime.end.p0(i64 4, ptr %8) #11
  call void @llvm.lifetime.end.p0(i64 8, ptr %7) #11
  ret void
}