; Function Attrs: nounwind uwtable
define dso_local void @ExecEvalAggOrderedTransTuple(ptr noundef readnone captures(none) %0, ptr noundef readonly captures(none) %1, ptr noundef readnone captures(none) %2) local_unnamed_addr #0 {
  %4 = getelementptr inbounds nuw i8, ptr %1, i64 24
  %5 = load ptr, ptr %4, align 8
  %6 = getelementptr inbounds nuw i8, ptr %1, i64 40
  %7 = load i32, ptr %6, align 8
  %8 = getelementptr inbounds nuw i8, ptr %5, i64 304
  %9 = load ptr, ptr %8, align 8
  %10 = getelementptr inbounds nuw i8, ptr %9, i64 8
  %11 = load ptr, ptr %10, align 8
  %12 = getelementptr inbounds nuw i8, ptr %11, i64 24
  %13 = load ptr, ptr %12, align 8
  tail call void %13(ptr noundef %9) #18
  %14 = getelementptr inbounds nuw i8, ptr %5, i64 12
  %15 = load i32, ptr %14, align 4
  %16 = trunc i32 %15 to i16
  %17 = load ptr, ptr %8, align 8
  %18 = getelementptr inbounds nuw i8, ptr %17, i64 6
  store i16 %16, ptr %18, align 2
  %19 = load ptr, ptr %8, align 8
  %20 = tail call ptr @ExecStoreVirtualTuple(ptr noundef %19) #18
  %21 = getelementptr inbounds nuw i8, ptr %5, i64 344
  %22 = load ptr, ptr %21, align 8
  %23 = sext i32 %7 to i64
  %24 = getelementptr inbounds ptr, ptr %22, i64 %23
  %25 = load ptr, ptr %24, align 8
  %26 = load ptr, ptr %8, align 8
  tail call void @tuplesort_puttupleslot(ptr noundef %25, ptr noundef %26) #18
  ret void
}